; ModuleID = 'source-C-CXX/61/1376.c'
source_filename = "source-C-CXX/61/1376.c"
target datalayout = "e-m:e-p270:32:32-p271:32:32-p272:64:64-i64:64-f80:128-n8:16:32:64-S128"
target triple = "x86_64-pc-linux-gnu"

; Function Attrs: nounwind sspstrong uwtable
define dso_local void @main() local_unnamed_addr #0 {
  %1 = tail call noalias align 16 dereferenceable_or_null(10000) i8* @malloc(i64 10000) #4
  %2 = tail call i32 (i8*, ...) bitcast (i32 (...)* @gets to i32 (i8*, ...)*)(i8* %1) #4
  br label %3

3:                                                ; preds = %14, %0
  %4 = phi i64 [ %15, %14 ], [ 0, %0 ]
  %5 = getelementptr inbounds i8, i8* %1, i64 %4
  %6 = load i8, i8* %5, align 1, !tbaa !5
  switch i8 %6, label %11 [
    i8 0, label %16
    i8 32, label %7
  ]

7:                                                ; preds = %3
  %8 = getelementptr inbounds i8, i8* %5, i64 1
  %9 = load i8, i8* %8, align 1, !tbaa !5
  %10 = icmp eq i8 %9, 32
  br i1 %10, label %14, label %11

11:                                               ; preds = %3, %7
  %12 = sext i8 %6 to i32
  %13 = tail call i32 @putchar(i32 %12)
  br label %14

14:                                               ; preds = %7, %11
  %15 = add nuw i64 %4, 1
  br label %3, !llvm.loop !8

16:                                               ; preds = %3
  ret void
}

; Function Attrs: inaccessiblememonly mustprogress nofree nounwind willreturn
declare noalias noundef align 16 i8* @malloc(i64 noundef) local_unnamed_addr #1

declare i32 @gets(...) local_unnamed_addr #2

; Function Attrs: nofree nounwind
declare noundef i32 @putchar(i32 noundef) local_unnamed_addr #3


!llvm.module.flags = !{!0, !1, !2, !3}
!llvm.ident = !{!4}

!0 = !{i32 1, !"wchar_size", i32 4}
!1 = !{i32 7, !"PIC Level", i32 2}
!2 = !{i32 7, !"PIE Level", i32 2}
!3 = !{i32 7, !"uwtable", i32 1}
!4 = !{!"clang version 13.0.0"}
!5 = !{!6, !6, i64 0}
!6 = !{!"omnipotent char", !7, i64 0}
!7 = !{!"Simple C/C++ TBAA"}
!8 = distinct !{!8, !9}
!9 = !{!"llvm.loop.mustprogress"}
